; Function Attrs: mustprogress nofree norecurse nosync nounwind willreturn memory(argmem: read) uwtable
define dso_local noundef zeroext i1 @_ZNK11cmMessenger20IsMessageTypeVisibleE11MessageType(ptr noundef nonnull readonly align 8 captures(none) dereferenceable(64) %0, i32 noundef %1) local_unnamed_addr #3 align 2 {
  switch i32 %1, label %21 [
    i32 7, label %3
    i32 8, label %7
    i32 1, label %12
    i32 0, label %16
  ]

3:                                                ; preds = %2
  %4 = getelementptr inbounds nuw i8, ptr %0, i64 43
  %5 = load i8, ptr %4, align 1
  %6 = trunc i8 %5 to i1
  br label %21

7:                                                ; preds = %2
  %8 = getelementptr inbounds nuw i8, ptr %0, i64 41
  %9 = load i8, ptr %8, align 1
  %10 = trunc i8 %9 to i1
  %11 = xor i1 %10, true
  br label %21

12:                                               ; preds = %2
  %13 = getelementptr inbounds nuw i8, ptr %0, i64 42
  %14 = load i8, ptr %13, align 2
  %15 = trunc i8 %14 to i1
  br label %21

16:                                               ; preds = %2
  %17 = getelementptr inbounds nuw i8, ptr %0, i64 40
  %18 = load i8, ptr %17, align 8
  %19 = trunc i8 %18 to i1
  %20 = xor i1 %19, true
  br label %21

21:                                               ; preds = %2, %16, %12, %7, %3
  %.0 = phi i1 [ %6, %3 ], [ %11, %7 ], [ %15, %12 ], [ %20, %16 ], [ true, %2 ]
  ret i1 %.0
}